target datalayout = "e-m:e-p270:32:32-p271:32:32-p272:64:64-i64:64-i128:128-f80:128-n8:16:32:64-S128"
target triple = "x86_64-pc-linux-gnu"

; Function Attrs: nounwind uwtable
define void @TwoOutArgs(i32 noundef %0, ptr noundef %1, i32 noundef %2, ptr noundef %3) #0 {
  %5 = alloca i32, align 4
  %6 = alloca ptr, align 8
  %7 = alloca i32, align 4
  %8 = alloca ptr, align 8
  store i32 %0, ptr %5, align 4, !tbaa !3
  store ptr %1, ptr %6, align 8, !tbaa !44
  store i32 %2, ptr %7, align 4, !tbaa !3
  store ptr %3, ptr %8, align 8, !tbaa !44
  %9 = load i32, ptr %5, align 4, !tbaa !3
  %10 = load ptr, ptr %6, align 8, !tbaa !44
  %11 = load i32, ptr %10, align 4, !tbaa !3
  %12 = add i32 %11, %9
  store i32 %12, ptr %10, align 4, !tbaa !3
  %13 = load i32, ptr %7, align 4, !tbaa !3
  %14 = load ptr, ptr %8, align 8, !tbaa !44
  %15 = load i32, ptr %14, align 4, !tbaa !3
  %16 = add i32 %15, %13
  store i32 %16, ptr %14, align 4, !tbaa !3
  ret void
}