; Function Attrs: mustprogress nofree norecurse nosync nounwind willreturn memory(argmem: readwrite) uwtable
define void @TwoOutArgs(i32 noundef %0, ptr noundef captures(none) %1, i32 noundef %2, ptr noundef captures(none) %3) local_unnamed_addr #12 {
  %5 = load i32, ptr %1, align 4, !tbaa !10
  %6 = add i32 %5, %0
  store i32 %6, ptr %1, align 4, !tbaa !10
  %7 = load i32, ptr %3, align 4, !tbaa !10
  %8 = add i32 %7, %2
  store i32 %8, ptr %3, align 4, !tbaa !10
  ret void
}